; ModuleID = '14/1071.c'
source_filename = "14/1071.c"
target datalayout = "e-m:e-p270:32:32-p271:32:32-p272:64:64-i64:64-f80:128-n8:16:32:64-S128"
target triple = "x86_64-pc-linux-gnu"

%struct.student = type { i32, i32, i32, %struct.student* }

@.str = private unnamed_addr constant [3 x i8] c"%d\00", align 1
@.str.1 = private unnamed_addr constant [9 x i8] c"%d %d %d\00", align 1
@.str.2 = private unnamed_addr constant [7 x i8] c"%d %d\0A\00", align 1

; Function Attrs: noinline nounwind uwtable
define dso_local void @main() #0 {
  %1 = alloca %struct.student*, align 8
  %2 = alloca %struct.student*, align 8
  %3 = alloca %struct.student*, align 8
  %4 = alloca i32, align 4
  %5 = alloca i32, align 4
  %6 = alloca i32, align 4
  %7 = alloca i32, align 4
  %8 = call i32 (i8*, ...) @__isoc99_scanf(i8* getelementptr inbounds ([3 x i8], [3 x i8]* @.str, i64 0, i64 0), i32* %4)
  %9 = call noalias i8* @malloc(i64 100) #3
  %10 = bitcast i8* %9 to %struct.student*
  store %struct.student* %10, %struct.student** %3, align 8
  store %struct.student* %10, %struct.student** %2, align 8
  store %struct.student* %10, %struct.student** %1, align 8
  %11 = load %struct.student*, %struct.student** %2, align 8
  %12 = getelementptr inbounds %struct.student, %struct.student* %11, i32 0, i32 0
  %13 = load %struct.student*, %struct.student** %2, align 8
  %14 = getelementptr inbounds %struct.student, %struct.student* %13, i32 0, i32 1
  %15 = load %struct.student*, %struct.student** %2, align 8
  %16 = getelementptr inbounds %struct.student, %struct.student* %15, i32 0, i32 2
  %17 = call i32 (i8*, ...) @__isoc99_scanf(i8* getelementptr inbounds ([9 x i8], [9 x i8]* @.str.1, i64 0, i64 0), i32* %12, i32* %14, i32* %16)
  store i32 1, i32* %5, align 4
  br label %18

18:                                               ; preds = %36, %0
  %19 = load i32, i32* %5, align 4
  %20 = load i32, i32* %4, align 4
  %21 = icmp slt i32 %19, %20
  br i1 %21, label %22, label %39

22:                                               ; preds = %18
  %23 = call noalias i8* @malloc(i64 100) #3
  %24 = bitcast i8* %23 to %struct.student*
  store %struct.student* %24, %struct.student** %2, align 8
  %25 = load %struct.student*, %struct.student** %2, align 8
  %26 = getelementptr inbounds %struct.student, %struct.student* %25, i32 0, i32 0
  %27 = load %struct.student*, %struct.student** %2, align 8
  %28 = getelementptr inbounds %struct.student, %struct.student* %27, i32 0, i32 1
  %29 = load %struct.student*, %struct.student** %2, align 8
  %30 = getelementptr inbounds %struct.student, %struct.student* %29, i32 0, i32 2
  %31 = call i32 (i8*, ...) @__isoc99_scanf(i8* getelementptr inbounds ([9 x i8], [9 x i8]* @.str.1, i64 0, i64 0), i32* %26, i32* %28, i32* %30)
  %32 = load %struct.student*, %struct.student** %2, align 8
  %33 = load %struct.student*, %struct.student** %3, align 8
  %34 = getelementptr inbounds %struct.student, %struct.student* %33, i32 0, i32 3
  store %struct.student* %32, %struct.student** %34, align 8
  %35 = load %struct.student*, %struct.student** %2, align 8
  store %struct.student* %35, %struct.student** %3, align 8
  br label %36

36:                                               ; preds = %22
  %37 = load i32, i32* %5, align 4
  %38 = add nsw i32 %37, 1
  store i32 %38, i32* %5, align 4
  br label %18

39:                                               ; preds = %18
  %40 = load %struct.student*, %struct.student** %3, align 8
  %41 = getelementptr inbounds %struct.student, %struct.student* %40, i32 0, i32 3
  store %struct.student* null, %struct.student** %41, align 8
  store i32 1, i32* %5, align 4
  br label %42

42:                                               ; preds = %88, %39
  %43 = load i32, i32* %5, align 4
  %44 = icmp sle i32 %43, 3
  br i1 %44, label %45, label %91

45:                                               ; preds = %42
  %46 = load %struct.student*, %struct.student** %1, align 8
  store %struct.student* %46, %struct.student** %3, align 8
  store %struct.student* %46, %struct.student** %2, align 8
  br label %47

47:                                               ; preds = %68, %45
  %48 = load %struct.student*, %struct.student** %2, align 8
  %49 = icmp ne %struct.student* %48, null
  br i1 %49, label %50, label %72

50:                                               ; preds = %47
  %51 = load %struct.student*, %struct.student** %2, align 8
  %52 = getelementptr inbounds %struct.student, %struct.student* %51, i32 0, i32 1
  %53 = load i32, i32* %52, align 4
  %54 = load %struct.student*, %struct.student** %2, align 8
  %55 = getelementptr inbounds %struct.student, %struct.student* %54, i32 0, i32 2
  %56 = load i32, i32* %55, align 8
  %57 = add nsw i32 %53, %56
  %58 = load %struct.student*, %struct.student** %3, align 8
  %59 = getelementptr inbounds %struct.student, %struct.student* %58, i32 0, i32 1
  %60 = load i32, i32* %59, align 4
  %61 = load %struct.student*, %struct.student** %3, align 8
  %62 = getelementptr inbounds %struct.student, %struct.student* %61, i32 0, i32 2
  %63 = load i32, i32* %62, align 8
  %64 = add nsw i32 %60, %63
  %65 = icmp sgt i32 %57, %64
  br i1 %65, label %66, label %68

66:                                               ; preds = %50
  %67 = load %struct.student*, %struct.student** %2, align 8
  store %struct.student* %67, %struct.student** %3, align 8
  br label %68

68:                                               ; preds = %66, %50
  %69 = load %struct.student*, %struct.student** %2, align 8
  %70 = getelementptr inbounds %struct.student, %struct.student* %69, i32 0, i32 3
  %71 = load %struct.student*, %struct.student** %70, align 8
  store %struct.student* %71, %struct.student** %2, align 8
  br label %47

72:                                               ; preds = %47
  %73 = load %struct.student*, %struct.student** %3, align 8
  %74 = getelementptr inbounds %struct.student, %struct.student* %73, i32 0, i32 0
  %75 = load i32, i32* %74, align 8
  %76 = load %struct.student*, %struct.student** %3, align 8
  %77 = getelementptr inbounds %struct.student, %struct.student* %76, i32 0, i32 1
  %78 = load i32, i32* %77, align 4
  %79 = load %struct.student*, %struct.student** %3, align 8
  %80 = getelementptr inbounds %struct.student, %struct.student* %79, i32 0, i32 2
  %81 = load i32, i32* %80, align 8
  %82 = add nsw i32 %78, %81
  %83 = call i32 (i8*, ...) @printf(i8* getelementptr inbounds ([7 x i8], [7 x i8]* @.str.2, i64 0, i64 0), i32 %75, i32 %82)
  %84 = load %struct.student*, %struct.student** %3, align 8
  %85 = getelementptr inbounds %struct.student, %struct.student* %84, i32 0, i32 1
  store i32 0, i32* %85, align 4
  %86 = load %struct.student*, %struct.student** %3, align 8
  %87 = getelementptr inbounds %struct.student, %struct.student* %86, i32 0, i32 2
  store i32 0, i32* %87, align 8
  br label %88

88:                                               ; preds = %72
  %89 = load i32, i32* %5, align 4
  %90 = add nsw i32 %89, 1
  store i32 %90, i32* %5, align 4
  br label %42

91:                                               ; preds = %42
  ret void
}

declare dso_local i32 @__isoc99_scanf(i8*, ...) #1

; Function Attrs: nounwind
declare dso_local noalias i8* @malloc(i64) #2

declare dso_local i32 @printf(i8*, ...) #1


!llvm.module.flags = !{!0}
!llvm.ident = !{!1}

!0 = !{i32 1, !"wchar_size", i32 4}
!1 = !{!"clang version 10.0.0-4ubuntu1 "}
